target datalayout = "e-m:e-p270:32:32-p271:32:32-p272:64:64-i64:64-i128:128-f80:128-n8:16:32:64-S128"
target triple = "x86_64-pc-linux-gnu"

@hf_edp_tlv_marker = internal global i32 0, align 4
@hf_edp_tlv_type = internal global i32 0, align 4
@hf_edp_tlv_length = internal global i32 0, align 4
@ett_edp_tlv_header = internal global i32 0, align 4
@.str.255 = private unnamed_addr constant [39 x i8] c"Marker 0x%02x, length %d, type %d = %s\00", align 1
@.str.256 = private unnamed_addr constant [17 x i8] c"Unknown (0x%02x)\00", align 1

; Function Attrs: null_pointer_is_valid sspstrong uwtable
define internal i32 @dissect_tlv_header(ptr noundef %0, ptr noundef %1, i32 noundef %2, i32 noundef %3, ptr noundef %4) #0 {
  %6 = alloca ptr, align 8
  %7 = alloca ptr, align 8
  %8 = alloca i32, align 4
  %9 = alloca i32, align 4
  %10 = alloca ptr, align 8
  %11 = alloca ptr, align 8
  %12 = alloca i8, align 1
  %13 = alloca i8, align 1
  %14 = alloca i16, align 2
  store ptr %0, ptr %6, align 8
  store ptr %1, ptr %7, align 8
  store i32 %2, ptr %8, align 4
  store i32 %3, ptr %9, align 4
  store ptr %4, ptr %10, align 8
  call void @llvm.lifetime.start.p0(i64 8, ptr %11) #4
  call void @llvm.lifetime.start.p0(i64 1, ptr %12) #4
  call void @llvm.lifetime.start.p0(i64 1, ptr %13) #4
  call void @llvm.lifetime.start.p0(i64 2, ptr %14) #4
  %15 = load ptr, ptr %6, align 8
  %16 = load i32, ptr %8, align 4
  %17 = call zeroext i8 @tvb_get_uint8(ptr noundef %15, i32 noundef %16)
  store i8 %17, ptr %12, align 1
  %18 = load ptr, ptr %6, align 8
  %19 = load i32, ptr %8, align 4
  %20 = add i32 %19, 1
  %21 = call zeroext i8 @tvb_get_uint8(ptr noundef %18, i32 noundef %20)
  store i8 %21, ptr %13, align 1
  %22 = load ptr, ptr %6, align 8
  %23 = load i32, ptr %8, align 4
  %24 = add i32 %23, 2
  %25 = call zeroext i16 @tvb_get_ntohs(ptr noundef %22, i32 noundef %24)
  store i16 %25, ptr %14, align 2
  %26 = load ptr, ptr %10, align 8
  %27 = load ptr, ptr %6, align 8
  %28 = load i32, ptr %8, align 4
  %29 = load i32, ptr @ett_edp_tlv_header, align 4
  %30 = load i8, ptr %12, align 1
  %31 = zext i8 %30 to i32
  %32 = load i16, ptr %14, align 2
  %33 = zext i16 %32 to i32
  %34 = load i8, ptr %13, align 1
  %35 = zext i8 %34 to i32
  %36 = load i8, ptr %13, align 1
  %37 = zext i8 %36 to i32
  %38 = call ptr @val_to_str(i32 noundef %37, ptr noundef @edp_type_vals, ptr noundef @.str.256)
  %39 = call ptr (ptr, ptr, i32, i32, i32, ptr, ptr, ...) @proto_tree_add_subtree_format(ptr noundef %26, ptr noundef %27, i32 noundef %28, i32 noundef 4, i32 noundef %29, ptr noundef null, ptr noundef @.str.255, i32 noundef %31, i32 noundef %33, i32 noundef %35, ptr noundef %38)
  store ptr %39, ptr %11, align 8
  %40 = load ptr, ptr %11, align 8
  %41 = load i32, ptr @hf_edp_tlv_marker, align 4
  %42 = load ptr, ptr %6, align 8
  %43 = load i32, ptr %8, align 4
  %44 = call ptr @proto_tree_add_item(ptr noundef %40, i32 noundef %41, ptr noundef %42, i32 noundef %43, i32 noundef 1, i32 noundef 0)
  %45 = load i32, ptr %8, align 4
  %46 = add i32 %45, 1
  store i32 %46, ptr %8, align 4
  %47 = load ptr, ptr %11, align 8
  %48 = load i32, ptr @hf_edp_tlv_type, align 4
  %49 = load ptr, ptr %6, align 8
  %50 = load i32, ptr %8, align 4
  %51 = load i8, ptr %13, align 1
  %52 = zext i8 %51 to i32
  %53 = call ptr @proto_tree_add_uint(ptr noundef %47, i32 noundef %48, ptr noundef %49, i32 noundef %50, i32 noundef 1, i32 noundef %52)
  %54 = load i32, ptr %8, align 4
  %55 = add i32 %54, 1
  store i32 %55, ptr %8, align 4
  %56 = load ptr, ptr %11, align 8
  %57 = load i32, ptr @hf_edp_tlv_length, align 4
  %58 = load ptr, ptr %6, align 8
  %59 = load i32, ptr %8, align 4
  %60 = load i16, ptr %14, align 2
  %61 = zext i16 %60 to i32
  %62 = call ptr @proto_tree_add_uint(ptr noundef %56, i32 noundef %57, ptr noundef %58, i32 noundef %59, i32 noundef 2, i32 noundef %61)
  %63 = load i32, ptr %8, align 4
  %64 = add i32 %63, 2
  store i32 %64, ptr %8, align 4
  %65 = load i32, ptr %8, align 4
  call void @llvm.lifetime.end.p0(i64 2, ptr %14) #4
  call void @llvm.lifetime.end.p0(i64 1, ptr %13) #4
  call void @llvm.lifetime.end.p0(i64 1, ptr %12) #4
  call void @llvm.lifetime.end.p0(i64 8, ptr %11) #4
  ret i32 %65
}