; Function Attrs: null_pointer_is_valid sspstrong uwtable
define internal fastcc void @dissect_tlv_header(ptr noundef %0, i32 noundef range(i32 16, 65535) %1, ptr noundef %2) unnamed_addr #0 {
  %4 = tail call zeroext i8 @tvb_get_uint8(ptr noundef %0, i32 noundef %1)
  %5 = add nuw nsw i32 %1, 1
  %6 = tail call zeroext i8 @tvb_get_uint8(ptr noundef %0, i32 noundef %5)
  %7 = add nuw nsw i32 %1, 2
  %8 = tail call zeroext i16 @tvb_get_ntohs(ptr noundef %0, i32 noundef %7)
  %9 = load i32, ptr @ett_edp_tlv_header, align 4
  %10 = zext i8 %4 to i32
  %11 = zext i16 %8 to i32
  %12 = zext i8 %6 to i32
  %13 = tail call ptr @val_to_str(i32 noundef %12, ptr noundef nonnull @edp_type_vals, ptr noundef nonnull @.str.256)
  %14 = tail call ptr (ptr, ptr, i32, i32, i32, ptr, ptr, ...) @proto_tree_add_subtree_format(ptr noundef %2, ptr noundef %0, i32 noundef %1, i32 noundef 4, i32 noundef %9, ptr noundef null, ptr noundef nonnull @.str.255, i32 noundef %10, i32 noundef %11, i32 noundef %12, ptr noundef %13)
  %15 = load i32, ptr @hf_edp_tlv_marker, align 4
  %16 = tail call ptr @proto_tree_add_item(ptr noundef %14, i32 noundef %15, ptr noundef %0, i32 noundef %1, i32 noundef 1, i32 noundef 0)
  %17 = load i32, ptr @hf_edp_tlv_type, align 4
  %18 = tail call ptr @proto_tree_add_uint(ptr noundef %14, i32 noundef %17, ptr noundef %0, i32 noundef %5, i32 noundef 1, i32 noundef %12)
  %19 = load i32, ptr @hf_edp_tlv_length, align 4
  %20 = tail call ptr @proto_tree_add_uint(ptr noundef %14, i32 noundef %19, ptr noundef %0, i32 noundef %7, i32 noundef 2, i32 noundef %11)
  ret void
}